; Function Attrs: nounwind uwtable
define range(i32 -1, 1) i32 @H5Pget_core_write_tracking(i64 noundef %0, ptr noundef writeonly captures(address_is_null) %1, ptr noundef writeonly captures(address_is_null) %2) local_unnamed_addr #0 {
  %4 = alloca %struct.H5CX_node_t, align 8
  call void @llvm.lifetime.start.p0(i64 480, ptr nonnull %4) #18
  call void @llvm.memset.p0.i64(ptr noundef nonnull align 8 dereferenceable(480) %4, i8 0, i64 480, i1 false)
  %5 = load i8, ptr @H5_libinit_g, align 1, !tbaa !3, !range !7, !noundef !8
  %6 = trunc nuw i8 %5 to i1
  %7 = load i8, ptr @H5_libterm_g, align 1, !range !7
  %8 = trunc nuw i8 %7 to i1
  %9 = select i1 %6, i1 true, i1 %8
  br i1 %9, label %17, label %10, !prof !9

10:                                               ; preds = %3
  %11 = tail call i32 @H5_init_library() #18
  %12 = icmp slt i32 %11, 0
  br i1 %12, label %13, label %._crit_edge, !prof !12

._crit_edge:                                      ; preds = %10
  %.pre = load i8, ptr @H5_libterm_g, align 1, !range !7
  br label %17

13:                                               ; preds = %10
  %14 = load i64, ptr @H5E_FUNC_g, align 8, !tbaa !10
  %15 = load i64, ptr @H5E_CANTINIT_g, align 8, !tbaa !10
  %16 = tail call i32 (ptr, ptr, i32, i64, i64, ptr, ...) @H5E_printf_stack(ptr noundef nonnull @.str.1, ptr noundef nonnull @__func__.H5Pget_core_write_tracking, i32 noundef 550, i64 noundef %14, i64 noundef %15, ptr noundef nonnull @.str.3) #18
  br label %.thread33

17:                                               ; preds = %._crit_edge, %3
  %18 = phi i8 [ %.pre, %._crit_edge ], [ %7, %3 ]
  %19 = load i8, ptr @H5FD_init_g, align 1, !tbaa !3, !range !7, !noundef !8
  %20 = trunc nuw i8 %19 to i1
  %21 = trunc nuw i8 %18 to i1
  %22 = select i1 %20, i1 true, i1 %21
  br i1 %22, label %30, label %23, !prof !9

23:                                               ; preds = %17
  store i8 1, ptr @H5FD_init_g, align 1, !tbaa !3
  %24 = tail call i32 @H5FD__init_package() #18
  %25 = icmp slt i32 %24, 0
  br i1 %25, label %26, label %30, !prof !13

26:                                               ; preds = %23
  store i8 0, ptr @H5FD_init_g, align 1, !tbaa !3
  %27 = load i64, ptr @H5E_FUNC_g, align 8, !tbaa !10
  %28 = load i64, ptr @H5E_CANTINIT_g, align 8, !tbaa !10
  %29 = tail call i32 (ptr, ptr, i32, i64, i64, ptr, ...) @H5E_printf_stack(ptr noundef nonnull @.str.1, ptr noundef nonnull @__func__.H5Pget_core_write_tracking, i32 noundef 550, i64 noundef %27, i64 noundef %28, ptr noundef nonnull @.str.4) #18
  br label %.thread33

30:                                               ; preds = %17, %23
  %31 = call i32 @H5CX_push(ptr noundef nonnull %4) #18
  %32 = icmp slt i32 %31, 0
  br i1 %32, label %33, label %37, !prof !12

33:                                               ; preds = %30
  %34 = load i64, ptr @H5E_FUNC_g, align 8, !tbaa !10
  %35 = load i64, ptr @H5E_CANTSET_g, align 8, !tbaa !10
  %36 = call i32 (ptr, ptr, i32, i64, i64, ptr, ...) @H5E_printf_stack(ptr noundef nonnull @.str.1, ptr noundef nonnull @__func__.H5Pget_core_write_tracking, i32 noundef 550, i64 noundef %34, i64 noundef %35, ptr noundef nonnull @.str.5) #18
  br label %.thread33

37:                                               ; preds = %30
  %38 = call i32 @H5E_clear_stack() #18
  %39 = load i64, ptr @H5P_CLS_FILE_ACCESS_ID_g, align 8, !tbaa !10
  %40 = call ptr @H5P_object_verify(i64 noundef %0, i64 noundef %39, i1 noundef zeroext true) #18
  %41 = icmp eq ptr %40, null
  br i1 %41, label %42, label %46, !prof !14

42:                                               ; preds = %37
  %43 = load i64, ptr @H5E_PLIST_g, align 8, !tbaa !10
  %44 = load i64, ptr @H5E_BADID_g, align 8, !tbaa !10
  %45 = call i32 (ptr, ptr, i32, i64, i64, ptr, ...) @H5E_printf_stack(ptr noundef nonnull @.str.1, ptr noundef nonnull @__func__.H5Pget_core_write_tracking, i32 noundef 554, i64 noundef %43, i64 noundef %44, ptr noundef nonnull @.str.7) #18
  br label %.thread39

46:                                               ; preds = %37
  %47 = load i64, ptr @H5FD_CORE_id_g, align 8, !tbaa !10
  %48 = call i64 @H5P_peek_driver(ptr noundef nonnull %40) #18
  %.not = icmp eq i64 %47, %48
  br i1 %.not, label %53, label %49, !prof !15

49:                                               ; preds = %46
  %50 = load i64, ptr @H5E_PLIST_g, align 8, !tbaa !10
  %51 = load i64, ptr @H5E_BADVALUE_g, align 8, !tbaa !10
  %52 = call i32 (ptr, ptr, i32, i64, i64, ptr, ...) @H5E_printf_stack(ptr noundef nonnull @.str.1, ptr noundef nonnull @__func__.H5Pget_core_write_tracking, i32 noundef 556, i64 noundef %50, i64 noundef %51, ptr noundef nonnull @.str.8) #18
  br label %.thread39

53:                                               ; preds = %46
  %54 = call ptr @H5P_peek_driver_info(ptr noundef nonnull %40) #18
  %55 = icmp eq ptr %54, null
  br i1 %55, label %56, label %60, !prof !14

56:                                               ; preds = %53
  %57 = load i64, ptr @H5E_PLIST_g, align 8, !tbaa !10
  %58 = load i64, ptr @H5E_BADVALUE_g, align 8, !tbaa !10
  %59 = call i32 (ptr, ptr, i32, i64, i64, ptr, ...) @H5E_printf_stack(ptr noundef nonnull @.str.1, ptr noundef nonnull @__func__.H5Pget_core_write_tracking, i32 noundef 558, i64 noundef %57, i64 noundef %58, ptr noundef nonnull @.str.10) #18
  br label %.thread39

60:                                               ; preds = %53
  %.not23 = icmp eq ptr %1, null
  br i1 %.not23, label %64, label %61

61:                                               ; preds = %60
  %62 = getelementptr inbounds nuw i8, ptr %54, i64 9
  %63 = load i8, ptr %62, align 1, !tbaa !19, !range !7, !noundef !8
  store i8 %63, ptr %1, align 1, !tbaa !3
  br label %64

64:                                               ; preds = %61, %60
  %.not24 = icmp eq ptr %2, null
  br i1 %.not24, label %69, label %65

65:                                               ; preds = %64
  %66 = getelementptr inbounds nuw i8, ptr %54, i64 16
  %67 = load i64, ptr %66, align 8, !tbaa !20
  store i64 %67, ptr %2, align 8, !tbaa !10
  br label %69

.thread39:                                        ; preds = %56, %49, %42
  %68 = call i32 @H5CX_pop(i1 noundef zeroext true) #18
  br label %.thread33

69:                                               ; preds = %64, %65
  %70 = call i32 @H5CX_pop(i1 noundef zeroext true) #18
  br label %72

.thread33:                                        ; preds = %33, %26, %13, %.thread39
  %71 = call i32 @H5E_dump_api_stack() #18
  br label %72

72:                                               ; preds = %69, %.thread33
  %.0182836 = phi i32 [ -1, %.thread33 ], [ 0, %69 ]
  call void @llvm.lifetime.end.p0(i64 480, ptr nonnull %4) #18
  ret i32 %.0182836
}